
build/firmware.elf:     file format elf64-littleriscv


Disassembly of section .text:

0000000040000000 <_start>:
    40000000:	f14022f3          	csrr	t0,mhartid
    40000004:	00100313          	li	t1,1
    40000008:	00629e63          	bne	t0,t1,40000024 <_hlt>
    4000000c:	00001197          	auipc	gp,0x1
    40000010:	91418193          	addi	gp,gp,-1772 # 40000920 <__global_pointer$>
    40000014:	00001117          	auipc	sp,0x1
    40000018:	35c10113          	addi	sp,sp,860 # 40001370 <_stack_start>
    4000001c:	010000ef          	jal	ra,4000002c <bss_start>
    40000020:	04e000ef          	jal	ra,4000006e <main>

0000000040000024 <_hlt>:
    40000024:	10500073          	wfi
    40000028:	ffdff06f          	j	40000024 <_hlt>

000000004000002c <bss_start>:
    4000002c:	00000717          	auipc	a4,0x0
    40000030:	32473703          	ld	a4,804(a4) # 40000350 <_GLOBAL_OFFSET_TABLE_+0x8>
    40000034:	00000797          	auipc	a5,0x0
    40000038:	3247b783          	ld	a5,804(a5) # 40000358 <_GLOBAL_OFFSET_TABLE_+0x10>
    4000003c:	02f77163          	bgeu	a4,a5,4000005e <bss_start+0x32>
    40000040:	87ba                	mv	a5,a4
    40000042:	00000717          	auipc	a4,0x0
    40000046:	31673703          	ld	a4,790(a4) # 40000358 <_GLOBAL_OFFSET_TABLE_+0x10>
    4000004a:	177d                	addi	a4,a4,-1
    4000004c:	8f1d                	sub	a4,a4,a5
    4000004e:	9b71                	andi	a4,a4,-4
    40000050:	0711                	addi	a4,a4,4
    40000052:	973e                	add	a4,a4,a5
    40000054:	0791                	addi	a5,a5,4
    40000056:	fe07ae23          	sw	zero,-4(a5)
    4000005a:	fee79de3          	bne	a5,a4,40000054 <bss_start+0x28>
    4000005e:	8082                	ret

0000000040000060 <delay>:
    40000060:	00a05663          	blez	a0,4000006c <delay+0xc>
    40000064:	4781                	li	a5,0
    40000066:	2785                	addiw	a5,a5,1
    40000068:	fef51fe3          	bne	a0,a5,40000066 <delay+0x6>
    4000006c:	8082                	ret

000000004000006e <main>:
    4000006e:	1141                	addi	sp,sp,-16
    40000070:	e406                	sd	ra,8(sp)
    40000072:	4585                	li	a1,1
    40000074:	03d00513          	li	a0,61
    40000078:	010000ef          	jal	ra,40000088 <gpio_write>
    4000007c:	4581                	li	a1,0
    4000007e:	03d00513          	li	a0,61
    40000082:	006000ef          	jal	ra,40000088 <gpio_write>
    40000086:	b7f5                	j	40000072 <main+0x4>

0000000040000088 <gpio_write>:
    40000088:	c1ad                	beqz	a1,400000ea <gpio_write+0x62>
    4000008a:	03f00793          	li	a5,63
    4000008e:	08a7e863          	bltu	a5,a0,4000011e <gpio_write+0x96>
    40000092:	ffc57793          	andi	a5,a0,-4
    40000096:	0035151b          	slliw	a0,a0,0x3
    4000009a:	8961                	andi	a0,a0,24
    4000009c:	13040637          	lui	a2,0x13040
    400000a0:	00f605bb          	addw	a1,a2,a5
    400000a4:	1582                	slli	a1,a1,0x20
    400000a6:	9181                	srli	a1,a1,0x20
    400000a8:	4198                	lw	a4,0(a1)
    400000aa:	07f00693          	li	a3,127
    400000ae:	00a696bb          	sllw	a3,a3,a0
    400000b2:	fff6c693          	not	a3,a3
    400000b6:	8f75                	and	a4,a4,a3
    400000b8:	2701                	sext.w	a4,a4
    400000ba:	c198                	sw	a4,0(a1)
    400000bc:	0406061b          	addiw	a2,a2,64 # 13040040 <_start-0x2cfbffc0>
    400000c0:	9fb1                	addw	a5,a5,a2
    400000c2:	1782                	slli	a5,a5,0x20
    400000c4:	9381                	srli	a5,a5,0x20
    400000c6:	4398                	lw	a4,0(a5)
    400000c8:	03f00693          	li	a3,63
    400000cc:	00a696bb          	sllw	a3,a3,a0
    400000d0:	fff6c693          	not	a3,a3
    400000d4:	8f75                	and	a4,a4,a3
    400000d6:	2701                	sext.w	a4,a4
    400000d8:	c398                	sw	a4,0(a5)
    400000da:	4398                	lw	a4,0(a5)
    400000dc:	4685                	li	a3,1
    400000de:	00a696bb          	sllw	a3,a3,a0
    400000e2:	8f55                	or	a4,a4,a3
    400000e4:	2701                	sext.w	a4,a4
    400000e6:	c398                	sw	a4,0(a5)
    400000e8:	8082                	ret
    400000ea:	03f00793          	li	a5,63
    400000ee:	02a7e863          	bltu	a5,a0,4000011e <gpio_write+0x96>
    400000f2:	ffc57793          	andi	a5,a0,-4
    400000f6:	13040737          	lui	a4,0x13040
    400000fa:	0407071b          	addiw	a4,a4,64 # 13040040 <_start-0x2cfbffc0>
    400000fe:	9fb9                	addw	a5,a5,a4
    40000100:	1782                	slli	a5,a5,0x20
    40000102:	9381                	srli	a5,a5,0x20
    40000104:	4398                	lw	a4,0(a5)
    40000106:	0035151b          	slliw	a0,a0,0x3
    4000010a:	8961                	andi	a0,a0,24
    4000010c:	03f00693          	li	a3,63
    40000110:	00a696bb          	sllw	a3,a3,a0
    40000114:	fff6c693          	not	a3,a3
    40000118:	8f75                	and	a4,a4,a3
    4000011a:	2701                	sext.w	a4,a4
    4000011c:	c398                	sw	a4,0(a5)
    4000011e:	8082                	ret

Disassembly of section .interp:

0000000040000120 <.interp>:
    40000120:	62696c2f          	.4byte	0x62696c2f
    40000124:	2d646c2f          	.4byte	0x2d646c2f
    40000128:	696c                	ld	a1,208(a0)
    4000012a:	756e                	ld	a0,248(sp)
    4000012c:	2d78                	fld	fa4,216(a0)
    4000012e:	6972                	ld	s2,280(sp)
    40000130:	36766373          	csrrsi	t1,0x367,12
    40000134:	2d34                	fld	fa3,88(a0)
    40000136:	706c                	ld	a1,224(s0)
    40000138:	3436                	fld	fs0,360(sp)
    4000013a:	2e64                	fld	fs1,216(a2)
    4000013c:	312e6f73          	csrrsi	t5,0x312,28
	...

Disassembly of section .note.gnu.build-id:

0000000040000144 <.note.gnu.build-id>:
    40000144:	0004                	.2byte	0x4
    40000146:	0000                	unimp
    40000148:	0014                	.2byte	0x14
    4000014a:	0000                	unimp
    4000014c:	00000003          	lb	zero,0(zero) # 0 <_start-0x40000000>
    40000150:	00554e47          	fmsub.s	ft8,fa0,ft5,ft0,rmm
    40000154:	20ed                	addiw	ra,ra,27
    40000156:	4136                	lw	sp,76(sp)
    40000158:	6688                	ld	a0,8(a3)
    4000015a:	4a25                	li	s4,9
    4000015c:	0188                	addi	a0,sp,192
    4000015e:	1829                	addi	a6,a6,-22
    40000160:	c738                	sw	a4,72(a4)
    40000162:	ad8670ab          	.4byte	0xad8670ab
    40000166:	cb dd             	Address 0x0000000040000166 is out of bounds.


Disassembly of section .dynsym:

0000000040000168 <.dynsym>:
	...
    40000184:	00010003          	lb	zero,0(sp)
    40000188:	0000                	unimp
    4000018a:	4000                	lw	s0,0(s0)
	...
    40000198:	000c                	.2byte	0xc
    4000019a:	0000                	unimp
    4000019c:	0010                	.2byte	0x10
    4000019e:	000d                	c.nop	3
    400001a0:	0370                	addi	a2,sp,396
    400001a2:	4000                	lw	s0,0(s0)
	...
    400001b0:	0001                	nop
    400001b2:	0000                	unimp
    400001b4:	0010                	.2byte	0x10
    400001b6:	000d                	c.nop	3
    400001b8:	0370                	addi	a2,sp,396
    400001ba:	4000                	lw	s0,0(s0)
	...

Disassembly of section .dynstr:

00000000400001c8 <.dynstr>:
    400001c8:	5f00                	lw	s0,56(a4)
    400001ca:	7362                	ld	t1,56(sp)
    400001cc:	74735f73          	csrrwi	t5,0x747,6
    400001d0:	7261                	lui	tp,0xffff8
    400001d2:	0074                	addi	a3,sp,12
    400001d4:	625f 7373 655f      	.byte	0x5f, 0x62, 0x73, 0x73, 0x5f, 0x65
    400001da:	646e                	ld	s0,216(sp)
	...

Disassembly of section .gnu.hash:

00000000400001e0 <.gnu.hash>:
    400001e0:	0002                	c.slli64	zero
    400001e2:	0000                	unimp
    400001e4:	0002                	c.slli64	zero
    400001e6:	0000                	unimp
    400001e8:	0001                	nop
    400001ea:	0000                	unimp
    400001ec:	0006                	c.slli	zero,0x1
    400001ee:	0000                	unimp
    400001f0:	0080                	addi	s0,sp,64
    400001f2:	0300                	addi	s0,sp,384
    400001f4:	0004                	.2byte	0x4
    400001f6:	0000                	unimp
    400001f8:	0002                	c.slli64	zero
    400001fa:	0000                	unimp
    400001fc:	00000003          	lb	zero,0(zero) # 0 <_start-0x40000000>
    40000200:	b484a1e3          	.4byte	0xb484a1e3
    40000204:	4619                	li	a2,6
    40000206:	e935                	bnez	a0,4000027a <_DYNAMIC+0x42>

Disassembly of section .rela.dyn:

0000000040000208 <.rela.dyn>:
    40000208:	0350                	addi	a2,sp,388
    4000020a:	4000                	lw	s0,0(s0)
    4000020c:	0000                	unimp
    4000020e:	0000                	unimp
    40000210:	00000003          	lb	zero,0(zero) # 0 <_start-0x40000000>
    40000214:	0000                	unimp
    40000216:	0000                	unimp
    40000218:	0370                	addi	a2,sp,396
    4000021a:	4000                	lw	s0,0(s0)
    4000021c:	0000                	unimp
    4000021e:	0000                	unimp
    40000220:	0358                	addi	a4,sp,388
    40000222:	4000                	lw	s0,0(s0)
    40000224:	0000                	unimp
    40000226:	0000                	unimp
    40000228:	00000003          	lb	zero,0(zero) # 0 <_start-0x40000000>
    4000022c:	0000                	unimp
    4000022e:	0000                	unimp
    40000230:	0370                	addi	a2,sp,396
    40000232:	4000                	lw	s0,0(s0)
    40000234:	0000                	unimp
	...

Disassembly of section .dynamic:

0000000040000238 <.dynamic>:
    40000238:	fef5                	bnez	a3,40000234 <_PROCEDURE_LINKAGE_TABLE_+0x114>
    4000023a:	6fff                	.2byte	0x6fff
    4000023c:	0000                	unimp
    4000023e:	0000                	unimp
    40000240:	01e0                	addi	s0,sp,204
    40000242:	4000                	lw	s0,0(s0)
    40000244:	0000                	unimp
    40000246:	0000                	unimp
    40000248:	0005                	c.nop	1
    4000024a:	0000                	unimp
    4000024c:	0000                	unimp
    4000024e:	0000                	unimp
    40000250:	01c8                	addi	a0,sp,196
    40000252:	4000                	lw	s0,0(s0)
    40000254:	0000                	unimp
    40000256:	0000                	unimp
    40000258:	0006                	c.slli	zero,0x1
    4000025a:	0000                	unimp
    4000025c:	0000                	unimp
    4000025e:	0000                	unimp
    40000260:	0168                	addi	a0,sp,140
    40000262:	4000                	lw	s0,0(s0)
    40000264:	0000                	unimp
    40000266:	0000                	unimp
    40000268:	000a                	c.slli	zero,0x2
    4000026a:	0000                	unimp
    4000026c:	0000                	unimp
    4000026e:	0000                	unimp
    40000270:	0015                	c.nop	5
    40000272:	0000                	unimp
    40000274:	0000                	unimp
    40000276:	0000                	unimp
    40000278:	0000000b          	.4byte	0xb
    4000027c:	0000                	unimp
    4000027e:	0000                	unimp
    40000280:	0018                	.2byte	0x18
    40000282:	0000                	unimp
    40000284:	0000                	unimp
    40000286:	0000                	unimp
    40000288:	0015                	c.nop	5
	...
    40000296:	0000                	unimp
    40000298:	00000007          	.4byte	0x7
    4000029c:	0000                	unimp
    4000029e:	0000                	unimp
    400002a0:	0208                	addi	a0,sp,256
    400002a2:	4000                	lw	s0,0(s0)
    400002a4:	0000                	unimp
    400002a6:	0000                	unimp
    400002a8:	0008                	.2byte	0x8
    400002aa:	0000                	unimp
    400002ac:	0000                	unimp
    400002ae:	0000                	unimp
    400002b0:	0030                	addi	a2,sp,8
    400002b2:	0000                	unimp
    400002b4:	0000                	unimp
    400002b6:	0000                	unimp
    400002b8:	0009                	c.nop	2
    400002ba:	0000                	unimp
    400002bc:	0000                	unimp
    400002be:	0000                	unimp
    400002c0:	0018                	.2byte	0x18
    400002c2:	0000                	unimp
    400002c4:	0000                	unimp
    400002c6:	0000                	unimp
    400002c8:	001e                	c.slli	zero,0x7
    400002ca:	0000                	unimp
    400002cc:	0000                	unimp
    400002ce:	0000                	unimp
    400002d0:	0008                	.2byte	0x8
    400002d2:	0000                	unimp
    400002d4:	0000                	unimp
    400002d6:	0000                	unimp
    400002d8:	6ffffffb          	.4byte	0x6ffffffb
    400002dc:	0000                	unimp
    400002de:	0000                	unimp
    400002e0:	0001                	nop
    400002e2:	0800                	addi	s0,sp,16
    400002e4:	0000                	unimp
    400002e6:	0000                	unimp
    400002e8:	fff9                	bnez	a5,400002c6 <_DYNAMIC+0x8e>
    400002ea:	6fff                	.2byte	0x6fff
    400002ec:	0000                	unimp
    400002ee:	0000                	unimp
    400002f0:	0002                	c.slli64	zero
	...

Disassembly of section .got:

0000000040000348 <.got>:
    40000348:	0238                	addi	a4,sp,264
    4000034a:	4000                	lw	s0,0(s0)
	...

Disassembly of section .got.plt:

0000000040000360 <.got.plt>:
    40000360:	ffff                	.2byte	0xffff
    40000362:	ffff                	.2byte	0xffff
    40000364:	ffff                	.2byte	0xffff
    40000366:	ffff                	.2byte	0xffff
	...

Disassembly of section .kstack:

0000000040000370 <_stack_start-0x1000>:
	...

Disassembly of section .riscv.attributes:

0000000000000000 <.riscv.attributes>:
   0:	3641                	addiw	a2,a2,-16
   2:	0000                	unimp
   4:	7200                	ld	s0,32(a2)
   6:	7369                	lui	t1,0xffffa
   8:	01007663          	bgeu	zero,a6,14 <_start-0x3fffffec>
   c:	002c                	addi	a1,sp,8
   e:	0000                	unimp
  10:	7205                	lui	tp,0xfffe1
  12:	3676                	fld	fa2,376(sp)
  14:	6934                	ld	a3,80(a0)
  16:	7032                	.2byte	0x7032
  18:	5f30                	lw	a2,120(a4)
  1a:	326d                	addiw	tp,tp,-5 # fffffffffffe0ffb <_stack_start+0xffffffffbffdfc8b>
  1c:	3070                	fld	fa2,224(s0)
  1e:	615f 7032 5f30      	.byte	0x5f, 0x61, 0x32, 0x70, 0x30, 0x5f
  24:	3266                	fld	ft4,120(sp)
  26:	3070                	fld	fa2,224(s0)
  28:	645f 7032 5f30      	.byte	0x5f, 0x64, 0x32, 0x70, 0x30, 0x5f
  2e:	30703263          	.4byte	0x30703263
  32:	0800                	addi	s0,sp,16
  34:	0a01                	addi	s4,s4,0
  36:	0b              	Address 0x0000000000000036 is out of bounds.


Disassembly of section .debug_info:

0000000000000000 <.debug_info>:
   0:	000000d7          	.4byte	0xd7
   4:	0005                	c.nop	1
   6:	0801                	addi	a6,a6,0
   8:	0000                	unimp
   a:	0000                	unimp
   c:	2804                	fld	fs1,16(s0)
   e:	0000                	unimp
  10:	1d00                	addi	s0,sp,688
  12:	0035                	c.nop	13
  14:	0000                	unimp
  16:	0000                	unimp
  18:	0000                	unimp
  1a:	002c                	addi	a1,sp,8
  1c:	4000                	lw	s0,0(s0)
  1e:	0000                	unimp
  20:	0000                	unimp
  22:	0034                	addi	a3,sp,8
	...
  2c:	0000                	unimp
  2e:	0801                	addi	a6,a6,0
  30:	00000b07          	.4byte	0xb07
  34:	0100                	addi	s0,sp,128
  36:	0801                	addi	a6,a6,0
  38:	0084                	addi	s1,sp,64
  3a:	0000                	unimp
  3c:	0201                	addi	tp,tp,0 # 0 <_start-0x40000000>
  3e:	00009b07          	.4byte	0x9b07
  42:	0100                	addi	s0,sp,128
  44:	0704                	addi	s1,sp,896
  46:	0010                	.2byte	0x10
  48:	0000                	unimp
  4a:	0101                	addi	sp,sp,0
  4c:	8606                	mv	a2,ra
  4e:	0000                	unimp
  50:	0100                	addi	s0,sp,128
  52:	0502                	c.slli64	a0
  54:	00ae                	slli	ra,ra,0xb
  56:	0000                	unimp
  58:	0405                	addi	s0,s0,1
  5a:	6905                	lui	s2,0x1
  5c:	746e                	ld	s0,248(sp)
  5e:	0200                	addi	s0,sp,256
  60:	0000                	unimp
  62:	0000                	unimp
  64:	2a02                	fld	fs4,0(sp)
  66:	4316                	lw	t1,68(sp)
  68:	0000                	unimp
  6a:	0100                	addi	s0,sp,128
  6c:	0508                	addi	a0,sp,640
  6e:	0092                	slli	ra,ra,0x4
  70:	0000                	unimp
  72:	0101                	addi	sp,sp,0
  74:	8d08                	.2byte	0x8d08
  76:	0000                	unimp
  78:	0200                	addi	s0,sp,256
  7a:	0002                	c.slli64	zero
  7c:	0000                	unimp
  7e:	5f141a03          	lh	s4,1521(s0)
  82:	0000                	unimp
  84:	0300                	addi	s0,sp,384
  86:	001d                	c.nop	7
  88:	0000                	unimp
  8a:	4315                	li	t1,5
  8c:	0000                	unimp
  8e:	0300                	addi	s0,sp,384
  90:	00b8                	addi	a4,sp,72
  92:	0000                	unimp
  94:	4321                	li	t1,8
  96:	0000                	unimp
  98:	0600                	addi	s0,sp,768
  9a:	001e                	c.slli	zero,0x7
  9c:	0000                	unimp
  9e:	0801                	addi	a6,a6,0
  a0:	2c06                	fld	fs8,64(sp)
  a2:	0000                	unimp
  a4:	0040                	addi	s0,sp,4
  a6:	0000                	unimp
  a8:	3400                	fld	fs0,40(s0)
  aa:	0000                	unimp
  ac:	0000                	unimp
  ae:	0000                	unimp
  b0:	0100                	addi	s0,sp,128
  b2:	d49c                	sw	a5,40(s1)
  b4:	0000                	unimp
  b6:	0700                	addi	s0,sp,896
  b8:	7362                	ld	t1,56(sp)
  ba:	09010073          	.4byte	0x9010073
  be:	d410                	sw	a2,40(s0)
  c0:	0000                	unimp
  c2:	0c00                	addi	s0,sp,528
  c4:	0000                	unimp
  c6:	0800                	addi	s0,sp,16
  c8:	00b9                	addi	ra,ra,14
  ca:	0000                	unimp
  cc:	0a01                	addi	s4,s4,0
  ce:	0000d413          	srli	s0,ra,0x0
  d2:	0000                	unimp
  d4:	0809                	addi	a6,a6,2
  d6:	0079                	c.nop	30
  d8:	0000                	unimp
  da:	4200                	lw	s0,0(a2)
  dc:	0001                	nop
  de:	0500                	addi	s0,sp,640
  e0:	0100                	addi	s0,sp,128
  e2:	9008                	.2byte	0x9008
  e4:	0000                	unimp
  e6:	0500                	addi	s0,sp,640
  e8:	0028                	addi	a0,sp,8
  ea:	0000                	unimp
  ec:	831d                	srli	a4,a4,0x7
  ee:	0000                	unimp
  f0:	0000                	unimp
  f2:	0000                	unimp
  f4:	6000                	ld	s0,0(s0)
  f6:	0000                	unimp
  f8:	0040                	addi	s0,sp,4
  fa:	0000                	unimp
  fc:	2800                	fld	fs0,16(s0)
  fe:	0000                	unimp
 100:	0000                	unimp
 102:	0000                	unimp
 104:	a500                	fsd	fs0,8(a0)
 106:	0000                	unimp
 108:	0100                	addi	s0,sp,128
 10a:	0708                	addi	a0,sp,896
 10c:	0000000b          	.4byte	0xb
 110:	0101                	addi	sp,sp,0
 112:	8408                	.2byte	0x8408
 114:	0000                	unimp
 116:	0100                	addi	s0,sp,128
 118:	0702                	c.slli64	a4
 11a:	0000009b          	sext.w	ra,zero
 11e:	0401                	addi	s0,s0,0
 120:	00001007          	.4byte	0x1007
 124:	0100                	addi	s0,sp,128
 126:	0601                	addi	a2,a2,0
 128:	0086                	slli	ra,ra,0x1
 12a:	0000                	unimp
 12c:	0201                	addi	tp,tp,0 # 0 <_start-0x40000000>
 12e:	ae05                	j	45e <_start-0x3ffffba2>
 130:	0000                	unimp
 132:	0600                	addi	s0,sp,768
 134:	0504                	addi	s1,sp,640
 136:	6e69                	lui	t3,0x1a
 138:	0074                	addi	a3,sp,12
 13a:	00000003          	lb	zero,0(zero) # 0 <_start-0x40000000>
 13e:	0200                	addi	s0,sp,256
 140:	162a                	slli	a2,a2,0x2a
 142:	00000043          	fmadd.s	ft0,ft0,ft0,ft0,rne
 146:	0801                	addi	a6,a6,0
 148:	9205                	srli	a2,a2,0x21
 14a:	0000                	unimp
 14c:	0100                	addi	s0,sp,128
 14e:	0801                	addi	a6,a6,0
 150:	008d                	addi	ra,ra,3
 152:	0000                	unimp
 154:	00000203          	lb	tp,0(zero) # 0 <_start-0x40000000>
 158:	0300                	addi	s0,sp,384
 15a:	141a                	slli	s0,s0,0x26
 15c:	005f 0000 c107      	.byte	0x5f, 0x00, 0x00, 0x00, 0x07, 0xc1
 162:	0000                	unimp
 164:	0400                	addi	s0,sp,512
 166:	060c                	addi	a1,sp,768
 168:	009c                	addi	a5,sp,64
 16a:	0000                	unimp
 16c:	7904                	ld	s1,48(a0)
 16e:	0000                	unimp
 170:	0400                	addi	s0,sp,512
 172:	009c                	addi	a5,sp,64
 174:	0000                	unimp
 176:	0100                	addi	s0,sp,128
 178:	0201                	addi	tp,tp,0 # 0 <_start-0x40000000>
 17a:	00d6                	slli	ra,ra,0x15
 17c:	0000                	unimp
 17e:	d108                	sw	a0,32(a0)
 180:	0000                	unimp
 182:	0100                	addi	s0,sp,128
 184:	0509                	addi	a0,a0,2
 186:	0058                	addi	a4,sp,4
 188:	0000                	unimp
 18a:	006e                	c.slli	zero,0x1b
 18c:	4000                	lw	s0,0(s0)
 18e:	0000                	unimp
 190:	0000                	unimp
 192:	001a                	c.slli	zero,0x6
 194:	0000                	unimp
 196:	0000                	unimp
 198:	0000                	unimp
 19a:	9c01                	subw	s0,s0,s0
 19c:	00fc                	addi	a5,sp,76
 19e:	0000                	unimp
 1a0:	7c09                	lui	s8,0xfffe2
 1a2:	0000                	unimp
 1a4:	0040                	addi	s0,sp,4
 1a6:	0000                	unimp
 1a8:	8500                	.2byte	0x8500
 1aa:	0000                	unimp
 1ac:	e200                	sd	s0,0(a2)
 1ae:	0000                	unimp
 1b0:	0200                	addi	s0,sp,256
 1b2:	5a01                	li	s4,-32
 1b4:	0802                	c.slli64	a6
 1b6:	023d                	addi	tp,tp,15 # f <_start-0x3ffffff1>
 1b8:	5b01                	li	s6,-32
 1ba:	3101                	addiw	sp,sp,-32
 1bc:	0a00                	addi	s0,sp,272
 1be:	0086                	slli	ra,ra,0x1
 1c0:	4000                	lw	s0,0(s0)
 1c2:	0000                	unimp
 1c4:	0000                	unimp
 1c6:	0085                	addi	ra,ra,1
 1c8:	0000                	unimp
 1ca:	0102                	c.slli64	sp
 1cc:	025a                	slli	tp,tp,0x16
 1ce:	3d08                	fld	fa0,56(a0)
 1d0:	0102                	c.slli64	sp
 1d2:	0030015b          	.4byte	0x30015b
 1d6:	0b00                	addi	s0,sp,400
 1d8:	00dc                	addi	a5,sp,68
 1da:	0000                	unimp
 1dc:	0401                	addi	s0,s0,0
 1de:	6006                	.2byte	0x6006
 1e0:	0000                	unimp
 1e2:	0040                	addi	s0,sp,4
 1e4:	0000                	unimp
 1e6:	0e00                	addi	s0,sp,784
 1e8:	0000                	unimp
 1ea:	0000                	unimp
 1ec:	0000                	unimp
 1ee:	0100                	addi	s0,sp,128
 1f0:	0c9c                	addi	a5,sp,592
 1f2:	00cc                	addi	a1,sp,68
 1f4:	0000                	unimp
 1f6:	0401                	addi	s0,s0,0
 1f8:	5810                	lw	a2,48(s0)
 1fa:	0000                	unimp
 1fc:	0100                	addi	s0,sp,128
 1fe:	0d5a                	slli	s10,s10,0x16
 200:	0060                	addi	s0,sp,12
 202:	4000                	lw	s0,0(s0)
 204:	0000                	unimp
 206:	0000                	unimp
 208:	000c                	.2byte	0xc
 20a:	0000                	unimp
 20c:	0000                	unimp
 20e:	0000                	unimp
 210:	690e                	ld	s2,192(sp)
 212:	0100                	addi	s0,sp,128
 214:	0d06                	slli	s10,s10,0x1
 216:	0058                	addi	a4,sp,4
 218:	0000                	unimp
 21a:	002c                	addi	a1,sp,8
 21c:	0000                	unimp
 21e:	0000                	unimp
 220:	8a00                	.2byte	0x8a00
 222:	0001                	nop
 224:	0500                	addi	s0,sp,640
 226:	0100                	addi	s0,sp,128
 228:	6308                	ld	a0,0(a4)
 22a:	0001                	nop
 22c:	0700                	addi	s0,sp,896
 22e:	0028                	addi	a0,sp,8
 230:	0000                	unimp
 232:	991d                	andi	a0,a0,-25
 234:	0000                	unimp
 236:	0000                	unimp
 238:	0000                	unimp
 23a:	8800                	.2byte	0x8800
 23c:	0000                	unimp
 23e:	0040                	addi	s0,sp,4
 240:	0000                	unimp
 242:	9800                	.2byte	0x9800
 244:	0000                	unimp
 246:	0000                	unimp
 248:	0000                	unimp
 24a:	8a00                	.2byte	0x8a00
 24c:	0001                	nop
 24e:	0100                	addi	s0,sp,128
 250:	0708                	addi	a0,sp,896
 252:	0000000b          	.4byte	0xb
 256:	0101                	addi	sp,sp,0
 258:	8408                	.2byte	0x8408
 25a:	0000                	unimp
 25c:	0100                	addi	s0,sp,128
 25e:	0702                	c.slli64	a4
 260:	0000009b          	sext.w	ra,zero
 264:	0401                	addi	s0,s0,0
 266:	00001007          	.4byte	0x1007
 26a:	0100                	addi	s0,sp,128
 26c:	0601                	addi	a2,a2,0
 26e:	0086                	slli	ra,ra,0x1
 270:	0000                	unimp
 272:	0201                	addi	tp,tp,0 # 0 <_start-0x40000000>
 274:	ae05                	j	5a4 <_start-0x3ffffa5c>
 276:	0000                	unimp
 278:	0800                	addi	s0,sp,16
 27a:	0504                	addi	s1,sp,640
 27c:	6e69                	lui	t3,0x1a
 27e:	0074                	addi	a3,sp,12
 280:	0004                	.2byte	0x4
 282:	0000                	unimp
 284:	0200                	addi	s0,sp,256
 286:	162a                	slli	a2,a2,0x2a
 288:	00000043          	fmadd.s	ft0,ft0,ft0,ft0,rne
 28c:	0801                	addi	a6,a6,0
 28e:	9205                	srli	a2,a2,0x21
 290:	0000                	unimp
 292:	0100                	addi	s0,sp,128
 294:	0801                	addi	a6,a6,0
 296:	008d                	addi	ra,ra,3
 298:	0000                	unimp
 29a:	0204                	addi	s1,sp,256
 29c:	0000                	unimp
 29e:	0300                	addi	s0,sp,384
 2a0:	141a                	slli	s0,s0,0x26
 2a2:	005f 0000 c109      	.byte	0x5f, 0x00, 0x00, 0x00, 0x09, 0xc1
 2a8:	0000                	unimp
 2aa:	0100                	addi	s0,sp,128
 2ac:	00880623          	sb	s0,12(a6)
 2b0:	4000                	lw	s0,0(s0)
 2b2:	0000                	unimp
 2b4:	0000                	unimp
 2b6:	0098                	addi	a4,sp,64
 2b8:	0000                	unimp
 2ba:	0000                	unimp
 2bc:	0000                	unimp
 2be:	9c01                	subw	s0,s0,s0
 2c0:	0130                	addi	a2,sp,136
 2c2:	0000                	unimp
 2c4:	700a                	.2byte	0x700a
 2c6:	6e69                	lui	t3,0x1a
 2c8:	0100                	addi	s0,sp,128
 2ca:	00791a23          	sh	t2,20(s2) # 1014 <_start-0x3fffefec>
 2ce:	0000                	unimp
 2d0:	0060                	addi	s0,sp,12
 2d2:	0000                	unimp
 2d4:	0001030b          	.4byte	0x1030b
 2d8:	0100                	addi	s0,sp,128
 2da:	01302423          	sw	s3,8(zero) # 8 <_start-0x3ffffff8>
 2de:	0000                	unimp
 2e0:	000000b3          	add	ra,zero,zero
 2e4:	640c                	ld	a1,8(s0)
 2e6:	0001                	nop
 2e8:	8a00                	.2byte	0x8a00
 2ea:	0000                	unimp
 2ec:	0040                	addi	s0,sp,4
 2ee:	0000                	unimp
 2f0:	6000                	ld	s0,0(s0)
 2f2:	0000                	unimp
 2f4:	0000                	unimp
 2f6:	0000                	unimp
 2f8:	0100                	addi	s0,sp,128
 2fa:	00fb0927          	.4byte	0xfb0927
 2fe:	0000                	unimp
 300:	6d05                	lui	s10,0x1
 302:	0001                	nop
 304:	f000                	sd	s0,32(s0)
 306:	0000                	unimp
 308:	0200                	addi	s0,sp,256
 30a:	0178                	addi	a4,sp,140
 30c:	0000                	unimp
 30e:	011a                	slli	sp,sp,0x6
 310:	0000                	unimp
 312:	8202                	jr	tp
 314:	0001                	nop
 316:	6000                	ld	s0,0(s0)
 318:	0001                	nop
 31a:	0000                	unimp
 31c:	370d                	addiw	a4,a4,-29
 31e:	0001                	nop
 320:	ea00                	sd	s0,16(a2)
 322:	0000                	unimp
 324:	0040                	addi	s0,sp,4
 326:	0000                	unimp
 328:	3400                	fld	fs0,40(s0)
 32a:	0000                	unimp
 32c:	0000                	unimp
 32e:	0000                	unimp
 330:	0100                	addi	s0,sp,128
 332:	4405092b          	.4byte	0x4405092b
 336:	0001                	nop
 338:	7400                	ld	s0,40(s0)
 33a:	0001                	nop
 33c:	0200                	addi	s0,sp,256
 33e:	0000014f          	fnmadd.s	ft2,ft0,ft0,ft0,rne
 342:	019e                	slli	gp,gp,0x7
 344:	0000                	unimp
 346:	5902                	lw	s2,32(sp)
 348:	0001                	nop
 34a:	d200                	sw	s0,32(a2)
 34c:	0001                	nop
 34e:	0000                	unimp
 350:	0100                	addi	s0,sp,128
 352:	0201                	addi	tp,tp,0 # 0 <_start-0x40000000>
 354:	00d6                	slli	ra,ra,0x15
 356:	0000                	unimp
 358:	f80e                	sd	gp,48(sp)
 35a:	0000                	unimp
 35c:	0100                	addi	s0,sp,128
 35e:	64010d17          	auipc	s10,0x64010
 362:	0001                	nop
 364:	0600                	addi	s0,sp,768
 366:	6970                	ld	a2,208(a0)
 368:	006e                	c.slli	zero,0x1b
 36a:	00792117          	auipc	sp,0x792
 36e:	0000                	unimp
 370:	0000eb03          	lwu	s6,0(ra)
 374:	1c00                	addi	s0,sp,560
 376:	0079                	c.nop	30
 378:	0000                	unimp
 37a:	0000f203          	.4byte	0xf203
 37e:	1d00                	addi	s0,sp,688
 380:	0079                	c.nop	30
 382:	0000                	unimp
 384:	0f00                	addi	s0,sp,912
 386:	00e2                	slli	ra,ra,0x18
 388:	0000                	unimp
 38a:	0601                	addi	a2,a2,0
 38c:	010d                	addi	sp,sp,3 # 79236d <_start-0x3f86dc93>
 38e:	7006                	.2byte	0x7006
 390:	6e69                	lui	t3,0x1a
 392:	0600                	addi	s0,sp,768
 394:	791f 0000 0300      	.byte	0x1f, 0x79, 0x00, 0x00, 0x00, 0x03
 39a:	000000eb          	.4byte	0xeb
 39e:	790c                	ld	a1,48(a0)
 3a0:	0000                	unimp
 3a2:	0300                	addi	s0,sp,384
 3a4:	00f2                	slli	ra,ra,0x1c
 3a6:	0000                	unimp
 3a8:	790d                	lui	s2,0xfffe3
 3aa:	0000                	unimp
 3ac:	0000                	unimp
	...

Disassembly of section .debug_abbrev:

0000000000000000 <.debug_abbrev>:
   0:	2401                	sext.w	s0,s0
   2:	0b00                	addi	s0,sp,400
   4:	030b3e0b          	.4byte	0x30b3e0b
   8:	000e                	c.slli	zero,0x3
   a:	0200                	addi	s0,sp,256
   c:	0016                	c.slli	zero,0x5
   e:	0b3a0e03          	lb	t3,179(s4)
  12:	0b390b3b          	.4byte	0xb390b3b
  16:	1349                	addi	t1,t1,-14 # ffffffffffff9ff2 <_stack_start+0xffffffffbfff8c82>
  18:	0000                	unimp
  1a:	03003403          	ld	s0,48(zero) # 30 <_start-0x3fffffd0>
  1e:	3a0e                	fld	fs4,224(sp)
  20:	0121                	addi	sp,sp,8
  22:	3905213b          	.4byte	0x3905213b
  26:	3f13490b          	.4byte	0x3f13490b
  2a:	3c19                	addiw	s8,s8,-26 # fffffffffffe1fe6 <_stack_start+0xffffffffbffe0c76>
  2c:	0019                	c.nop	6
  2e:	0400                	addi	s0,sp,512
  30:	0111                	addi	sp,sp,4
  32:	0e25                	addi	t3,t3,9 # 1a009 <_start-0x3ffe5ff7>
  34:	1f030b13          	addi	s6,t1,496
  38:	01111f1b          	slliw	t5,sp,0x11
  3c:	0712                	slli	a4,a4,0x4
  3e:	1710                	addi	a2,sp,928
  40:	0000                	unimp
  42:	2405                	addiw	s0,s0,1
  44:	0b00                	addi	s0,sp,400
  46:	030b3e0b          	.4byte	0x30b3e0b
  4a:	0008                	.2byte	0x8
  4c:	0600                	addi	s0,sp,768
  4e:	012e                	slli	sp,sp,0xb
  50:	0e03193f 0b3b0b3a 	.8byte	0xb3b0b3a0e03193f
  58:	0b39                	addi	s6,s6,14
  5a:	0111                	addi	sp,sp,4
  5c:	0712                	slli	a4,a4,0x4
  5e:	1840                	addi	s0,sp,52
  60:	197a                	slli	s2,s2,0x3e
  62:	1301                	addi	t1,t1,-32
  64:	0000                	unimp
  66:	03003407          	fld	fs0,48(zero) # 30 <_start-0x3fffffd0>
  6a:	3a08                	fld	fa0,48(a2)
  6c:	390b3b0b          	.4byte	0x390b3b0b
  70:	0213490b          	.4byte	0x213490b
  74:	08000017          	auipc	zero,0x8000
  78:	0034                	addi	a3,sp,8
  7a:	0b3a0e03          	lb	t3,179(s4)
  7e:	0b390b3b          	.4byte	0xb390b3b
  82:	1349                	addi	t1,t1,-14
  84:	0000                	unimp
  86:	0f09                	addi	t5,t5,2
  88:	0b00                	addi	s0,sp,400
  8a:	0013490b          	.4byte	0x13490b
  8e:	0000                	unimp
  90:	2401                	sext.w	s0,s0
  92:	0b00                	addi	s0,sp,400
  94:	030b3e0b          	.4byte	0x30b3e0b
  98:	000e                	c.slli	zero,0x3
  9a:	0200                	addi	s0,sp,256
  9c:	0049                	c.nop	18
  9e:	1802                	slli	a6,a6,0x20
  a0:	187e                	slli	a6,a6,0x3f
  a2:	0000                	unimp
  a4:	03001603          	lh	a2,48(zero) # 30 <_start-0x3fffffd0>
  a8:	3a0e                	fld	fs4,224(sp)
  aa:	390b3b0b          	.4byte	0x390b3b0b
  ae:	0013490b          	.4byte	0x13490b
  b2:	0400                	addi	s0,sp,512
  b4:	0005                	c.nop	1
  b6:	1349                	addi	t1,t1,-14
  b8:	0000                	unimp
  ba:	1105                	addi	sp,sp,-31
  bc:	2501                	sext.w	a0,a0
  be:	130e                	slli	t1,t1,0x23
  c0:	1b1f030b          	.4byte	0x1b1f030b
  c4:	111f 1201 1007      	.byte	0x1f, 0x11, 0x01, 0x12, 0x07, 0x10
  ca:	06000017          	auipc	zero,0x6000
  ce:	0024                	addi	s1,sp,8
  d0:	0b3e0b0b          	.4byte	0xb3e0b0b
  d4:	00000803          	lb	a6,0(zero) # 0 <_start-0x40000000>
  d8:	3f012e07          	flw	ft8,1008(sp)
  dc:	0319                	addi	t1,t1,6
  de:	3a0e                	fld	fs4,224(sp)
  e0:	390b3b0b          	.4byte	0x390b3b0b
  e4:	3c19270b          	.4byte	0x3c19270b
  e8:	0119                	addi	sp,sp,6
  ea:	08000013          	li	zero,128
  ee:	012e                	slli	sp,sp,0xb
  f0:	0e03193f 0b3b0b3a 	.8byte	0xb3b0b3a0e03193f
  f8:	0b39                	addi	s6,s6,14
  fa:	13491927          	.4byte	0x13491927
  fe:	0111                	addi	sp,sp,4
 100:	0712                	slli	a4,a4,0x4
 102:	1840                	addi	s0,sp,52
 104:	197a                	slli	s2,s2,0x3e
 106:	1301                	addi	t1,t1,-32
 108:	0000                	unimp
 10a:	4809                	li	a6,2
 10c:	7d01                	lui	s10,0xfffe0
 10e:	7f01                	lui	t5,0xfffe0
 110:	00130113          	addi	sp,t1,1
 114:	0a00                	addi	s0,sp,272
 116:	0148                	addi	a0,sp,132
 118:	017d                	addi	sp,sp,31
 11a:	137f                	.2byte	0x137f
 11c:	0000                	unimp
 11e:	3f012e0b          	.4byte	0x3f012e0b
 122:	0319                	addi	t1,t1,6
 124:	3a0e                	fld	fs4,224(sp)
 126:	390b3b0b          	.4byte	0x390b3b0b
 12a:	1119270b          	.4byte	0x1119270b
 12e:	1201                	addi	tp,tp,-32 # ffffffffffffffe0 <_stack_start+0xffffffffbfffec70>
 130:	7a184007          	.4byte	0x7a184007
 134:	0019                	c.nop	6
 136:	0c00                	addi	s0,sp,528
 138:	0005                	c.nop	1
 13a:	0b3a0e03          	lb	t3,179(s4)
 13e:	0b390b3b          	.4byte	0xb390b3b
 142:	1349                	addi	t1,t1,-14
 144:	1802                	slli	a6,a6,0x20
 146:	0000                	unimp
 148:	0b0d                	addi	s6,s6,3
 14a:	1101                	addi	sp,sp,-32
 14c:	1201                	addi	tp,tp,-32 # ffffffffffffffe0 <_stack_start+0xffffffffbfffec70>
 14e:	0e000007          	.4byte	0xe000007
 152:	0034                	addi	a3,sp,8
 154:	0b3a0803          	lb	a6,179(s4)
 158:	0b390b3b          	.4byte	0xb390b3b
 15c:	1349                	addi	t1,t1,-14
 15e:	1702                	slli	a4,a4,0x20
 160:	0000                	unimp
 162:	0100                	addi	s0,sp,128
 164:	0024                	addi	s1,sp,8
 166:	0b3e0b0b          	.4byte	0xb3e0b0b
 16a:	00000e03          	lb	t3,0(zero) # 0 <_start-0x40000000>
 16e:	3402                	fld	fs0,32(sp)
 170:	3100                	fld	fs0,32(a0)
 172:	00170213          	addi	tp,a4,1
 176:	0300                	addi	s0,sp,384
 178:	0034                	addi	a3,sp,8
 17a:	213a0e03          	lb	t3,531(s4)
 17e:	3b01                	addiw	s6,s6,-32
 180:	0e21390b          	.4byte	0xe21390b
 184:	1349                	addi	t1,t1,-14
 186:	0000                	unimp
 188:	1604                	addi	s1,sp,800
 18a:	0300                	addi	s0,sp,384
 18c:	3a0e                	fld	fs4,224(sp)
 18e:	390b3b0b          	.4byte	0x390b3b0b
 192:	0013490b          	.4byte	0x13490b
 196:	0500                	addi	s0,sp,640
 198:	0005                	c.nop	1
 19a:	1331                	addi	t1,t1,-20
 19c:	1702                	slli	a4,a4,0x20
 19e:	0000                	unimp
 1a0:	0506                	slli	a0,a0,0x1
 1a2:	0300                	addi	s0,sp,384
 1a4:	3a08                	fld	fa0,48(a2)
 1a6:	0121                	addi	sp,sp,8
 1a8:	0b390b3b          	.4byte	0xb390b3b
 1ac:	1349                	addi	t1,t1,-14
 1ae:	0000                	unimp
 1b0:	25011107          	.4byte	0x25011107
 1b4:	130e                	slli	t1,t1,0x23
 1b6:	1b1f030b          	.4byte	0x1b1f030b
 1ba:	111f 1201 1007      	.byte	0x1f, 0x11, 0x01, 0x12, 0x07, 0x10
 1c0:	08000017          	auipc	zero,0x8000
 1c4:	0024                	addi	s1,sp,8
 1c6:	0b3e0b0b          	.4byte	0xb3e0b0b
 1ca:	00000803          	lb	a6,0(zero) # 0 <_start-0x40000000>
 1ce:	2e09                	addiw	t3,t3,2
 1d0:	3f01                	addiw	t5,t5,-32 # fffffffffffdffe0 <_stack_start+0xffffffffbffdec70>
 1d2:	0319                	addi	t1,t1,6
 1d4:	3a0e                	fld	fs4,224(sp)
 1d6:	390b3b0b          	.4byte	0x390b3b0b
 1da:	1119270b          	.4byte	0x1119270b
 1de:	1201                	addi	tp,tp,-32 # ffffffffffffffe0 <_stack_start+0xffffffffbfffec70>
 1e0:	7a184007          	.4byte	0x7a184007
 1e4:	0119                	addi	sp,sp,6
 1e6:	0a000013          	li	zero,160
 1ea:	0005                	c.nop	1
 1ec:	0b3a0803          	lb	a6,179(s4)
 1f0:	0b390b3b          	.4byte	0xb390b3b
 1f4:	1349                	addi	t1,t1,-14
 1f6:	1702                	slli	a4,a4,0x20
 1f8:	0000                	unimp
 1fa:	0300050b          	.4byte	0x300050b
 1fe:	3a0e                	fld	fs4,224(sp)
 200:	390b3b0b          	.4byte	0x390b3b0b
 204:	0213490b          	.4byte	0x213490b
 208:	0c000017          	auipc	zero,0xc000
 20c:	011d                	addi	sp,sp,7
 20e:	1331                	addi	t1,t1,-20
 210:	0111                	addi	sp,sp,4
 212:	0712                	slli	a4,a4,0x4
 214:	0b58                	addi	a4,sp,404
 216:	0b59                	addi	s6,s6,22
 218:	13010b57          	.4byte	0x13010b57
 21c:	0000                	unimp
 21e:	1d0d                	addi	s10,s10,-29 # fffffffffffdffe3 <_stack_start+0xffffffffbffdec73>
 220:	3101                	addiw	sp,sp,-32
 222:	12011113          	.4byte	0x12011113
 226:	590b5807          	.4byte	0x590b5807
 22a:	000b570b          	.4byte	0xb570b
 22e:	0e00                	addi	s0,sp,784
 230:	012e                	slli	sp,sp,0xb
 232:	0b3a0e03          	lb	t3,179(s4)
 236:	0b390b3b          	.4byte	0xb390b3b
 23a:	0b201927          	.4byte	0xb201927
 23e:	1301                	addi	t1,t1,-32
 240:	0000                	unimp
 242:	03012e0f          	.4byte	0x3012e0f
 246:	3a0e                	fld	fs4,224(sp)
 248:	390b3b0b          	.4byte	0x390b3b0b
 24c:	2019270b          	.4byte	0x2019270b
 250:	0000000b          	.4byte	0xb

Disassembly of section .debug_loclists:

0000000000000000 <.debug_loclists>:
   0:	001c                	.2byte	0x1c
   2:	0000                	unimp
   4:	0005                	c.nop	1
   6:	0008                	.2byte	0x8
   8:	0000                	unimp
   a:	0000                	unimp
   c:	00005407          	.4byte	0x5407
  10:	0040                	addi	s0,sp,4
  12:	0000                	unimp
  14:	5e00                	lw	s0,56(a2)
  16:	0000                	unimp
  18:	0040                	addi	s0,sp,4
  1a:	0000                	unimp
  1c:	0100                	addi	s0,sp,128
  1e:	005f 0030 0000      	.byte	0x5f, 0x00, 0x30, 0x00, 0x00, 0x00
  24:	0005                	c.nop	1
  26:	0008                	.2byte	0x8
  28:	0000                	unimp
  2a:	0000                	unimp
  2c:	00006007          	.4byte	0x6007
  30:	0040                	addi	s0,sp,4
  32:	0000                	unimp
  34:	6600                	ld	s0,8(a2)
  36:	0000                	unimp
  38:	0040                	addi	s0,sp,4
  3a:	0000                	unimp
  3c:	0200                	addi	s0,sp,256
  3e:	9f30                	.2byte	0x9f30
  40:	00006607          	.4byte	0x6607
  44:	0040                	addi	s0,sp,4
  46:	0000                	unimp
  48:	6800                	ld	s0,16(s0)
  4a:	0000                	unimp
  4c:	0040                	addi	s0,sp,4
  4e:	0000                	unimp
  50:	0100                	addi	s0,sp,128
  52:	005f 01ae 0000      	.byte	0x5f, 0x00, 0xae, 0x01, 0x00, 0x00
  58:	0005                	c.nop	1
  5a:	0008                	.2byte	0x8
  5c:	0000                	unimp
  5e:	0000                	unimp
  60:	00008807          	.4byte	0x8807
  64:	0040                	addi	s0,sp,4
  66:	0000                	unimp
  68:	9a00                	.2byte	0x9a00
  6a:	0000                	unimp
  6c:	0040                	addi	s0,sp,4
  6e:	0000                	unimp
  70:	0100                	addi	s0,sp,128
  72:	075a                	slli	a4,a4,0x16
  74:	009a                	slli	ra,ra,0x6
  76:	4000                	lw	s0,0(s0)
  78:	0000                	unimp
  7a:	0000                	unimp
  7c:	00ea                	slli	ra,ra,0x1a
  7e:	4000                	lw	s0,0(s0)
  80:	0000                	unimp
  82:	0000                	unimp
  84:	a304                	fsd	fs1,0(a4)
  86:	5a01                	li	s4,-32
  88:	079f 00ea 4000      	.byte	0x9f, 0x07, 0xea, 0x00, 0x00, 0x40
  8e:	0000                	unimp
  90:	0000                	unimp
  92:	010a                	slli	sp,sp,0x2
  94:	4000                	lw	s0,0(s0)
  96:	0000                	unimp
  98:	0000                	unimp
  9a:	5a01                	li	s4,-32
  9c:	00010a07          	.4byte	0x10a07
  a0:	0040                	addi	s0,sp,4
  a2:	0000                	unimp
  a4:	2000                	fld	fs0,0(s0)
  a6:	0001                	nop
  a8:	0040                	addi	s0,sp,4
  aa:	0000                	unimp
  ac:	0400                	addi	s0,sp,512
  ae:	9f5a01a3          	sb	s5,-1565(s4)
  b2:	0700                	addi	s0,sp,896
  b4:	0088                	addi	a0,sp,64
  b6:	4000                	lw	s0,0(s0)
  b8:	0000                	unimp
  ba:	0000                	unimp
  bc:	00a4                	addi	s1,sp,72
  be:	4000                	lw	s0,0(s0)
  c0:	0000                	unimp
  c2:	0000                	unimp
  c4:	5b01                	li	s6,-32
  c6:	0000a407          	flw	fs0,0(ra)
  ca:	0040                	addi	s0,sp,4
  cc:	0000                	unimp
  ce:	ea00                	sd	s0,16(a2)
  d0:	0000                	unimp
  d2:	0040                	addi	s0,sp,4
  d4:	0000                	unimp
  d6:	0400                	addi	s0,sp,512
  d8:	9f5b01a3          	sb	s5,-1565(s6)
  dc:	0000ea07          	.4byte	0xea07
  e0:	0040                	addi	s0,sp,4
  e2:	0000                	unimp
  e4:	2000                	fld	fs0,0(s0)
  e6:	0001                	nop
  e8:	0040                	addi	s0,sp,4
  ea:	0000                	unimp
  ec:	0100                	addi	s0,sp,128
  ee:	8a07005b          	.4byte	0x8a07005b
  f2:	0000                	unimp
  f4:	0040                	addi	s0,sp,4
  f6:	0000                	unimp
  f8:	9a00                	.2byte	0x9a00
  fa:	0000                	unimp
  fc:	0040                	addi	s0,sp,4
  fe:	0000                	unimp
 100:	0100                	addi	s0,sp,128
 102:	075a                	slli	a4,a4,0x16
 104:	009a                	slli	ra,ra,0x6
 106:	4000                	lw	s0,0(s0)
 108:	0000                	unimp
 10a:	0000                	unimp
 10c:	00ea                	slli	ra,ra,0x1a
 10e:	4000                	lw	s0,0(s0)
 110:	0000                	unimp
 112:	0000                	unimp
 114:	a304                	fsd	fs1,0(a4)
 116:	5a01                	li	s4,-32
 118:	009f 9607 0000      	.byte	0x9f, 0x00, 0x07, 0x96, 0x00, 0x00
 11e:	0040                	addi	s0,sp,4
 120:	0000                	unimp
 122:	c200                	sw	s0,0(a2)
 124:	0000                	unimp
 126:	0040                	addi	s0,sp,4
 128:	0000                	unimp
 12a:	0100                	addi	s0,sp,128
 12c:	075f 00c2 4000      	.byte	0x5f, 0x07, 0xc2, 0x00, 0x00, 0x40
 132:	0000                	unimp
 134:	0000                	unimp
 136:	00c4                	addi	s1,sp,68
 138:	4000                	lw	s0,0(s0)
 13a:	0000                	unimp
 13c:	0000                	unimp
 13e:	ffc07f07          	.4byte	0xffc07f07
 142:	9f7ee7ef          	jal	a5,fffffffffffeeb38 <_stack_start+0xffffffffbffed7c8>
 146:	0000c407          	.4byte	0xc407
 14a:	0040                	addi	s0,sp,4
 14c:	0000                	unimp
 14e:	ea00                	sd	s0,16(a2)
 150:	0000                	unimp
 152:	0040                	addi	s0,sp,4
 154:	0000                	unimp
 156:	0700                	addi	s0,sp,896
 158:	095a01a3          	sb	s5,131(s4)
 15c:	1afc                	addi	a5,sp,380
 15e:	009f 9c07 0000      	.byte	0x9f, 0x00, 0x07, 0x9c, 0x00, 0x00
 164:	0040                	addi	s0,sp,4
 166:	0000                	unimp
 168:	ea00                	sd	s0,16(a2)
 16a:	0000                	unimp
 16c:	0040                	addi	s0,sp,4
 16e:	0000                	unimp
 170:	0100                	addi	s0,sp,128
 172:	005a                	c.slli	zero,0x16
 174:	0000ea07          	.4byte	0xea07
 178:	0040                	addi	s0,sp,4
 17a:	0000                	unimp
 17c:	0a00                	addi	s0,sp,272
 17e:	0001                	nop
 180:	0040                	addi	s0,sp,4
 182:	0000                	unimp
 184:	0100                	addi	s0,sp,128
 186:	075a                	slli	a4,a4,0x16
 188:	010a                	slli	sp,sp,0x2
 18a:	4000                	lw	s0,0(s0)
 18c:	0000                	unimp
 18e:	0000                	unimp
 190:	011e                	slli	sp,sp,0x7
 192:	4000                	lw	s0,0(s0)
 194:	0000                	unimp
 196:	0000                	unimp
 198:	a304                	fsd	fs1,0(a4)
 19a:	5a01                	li	s4,-32
 19c:	009f f207 0000      	.byte	0x9f, 0x00, 0x07, 0xf2, 0x00, 0x00
 1a2:	0040                	addi	s0,sp,4
 1a4:	0000                	unimp
 1a6:	0a00                	addi	s0,sp,272
 1a8:	0001                	nop
 1aa:	0040                	addi	s0,sp,4
 1ac:	0000                	unimp
 1ae:	0700                	addi	s0,sp,896
 1b0:	007a                	c.slli	zero,0x1e
 1b2:	2532                	fld	fa0,264(sp)
 1b4:	2432                	fld	fs0,264(sp)
 1b6:	079f 010a 4000      	.byte	0x9f, 0x07, 0x0a, 0x01, 0x00, 0x40
 1bc:	0000                	unimp
 1be:	0000                	unimp
 1c0:	011e                	slli	sp,sp,0x7
 1c2:	4000                	lw	s0,0(s0)
 1c4:	0000                	unimp
 1c6:	0000                	unimp
 1c8:	a308                	fsd	fa0,0(a4)
 1ca:	5a01                	li	s4,-32
 1cc:	2532                	fld	fa0,264(sp)
 1ce:	2432                	fld	fs0,264(sp)
 1d0:	009f f207 0000      	.byte	0x9f, 0x00, 0x07, 0xf2, 0x00, 0x00
 1d6:	0040                	addi	s0,sp,4
 1d8:	0000                	unimp
 1da:	0a00                	addi	s0,sp,272
 1dc:	0001                	nop
 1de:	0040                	addi	s0,sp,4
 1e0:	0000                	unimp
 1e2:	0700                	addi	s0,sp,896
 1e4:	007a                	c.slli	zero,0x1e
 1e6:	1a482433          	.4byte	0x1a482433
 1ea:	079f 010a 4000      	.byte	0x9f, 0x07, 0x0a, 0x01, 0x00, 0x40
 1f0:	0000                	unimp
 1f2:	0000                	unimp
 1f4:	011e                	slli	sp,sp,0x7
 1f6:	4000                	lw	s0,0(s0)
 1f8:	0000                	unimp
 1fa:	0000                	unimp
 1fc:	a308                	fsd	fa0,0(a4)
 1fe:	5a01                	li	s4,-32
 200:	1a482433          	.4byte	0x1a482433
 204:	9f 00             	Address 0x0000000000000204 is out of bounds.


Disassembly of section .debug_aranges:

0000000000000000 <.debug_aranges>:
   0:	002c                	addi	a1,sp,8
   2:	0000                	unimp
   4:	0002                	c.slli64	zero
   6:	0000                	unimp
   8:	0000                	unimp
   a:	0008                	.2byte	0x8
   c:	0000                	unimp
   e:	0000                	unimp
  10:	002c                	addi	a1,sp,8
  12:	4000                	lw	s0,0(s0)
  14:	0000                	unimp
  16:	0000                	unimp
  18:	0034                	addi	a3,sp,8
	...
  2e:	0000                	unimp
  30:	002c                	addi	a1,sp,8
  32:	0000                	unimp
  34:	0002                	c.slli64	zero
  36:	000000db          	.4byte	0xdb
  3a:	0008                	.2byte	0x8
  3c:	0000                	unimp
  3e:	0000                	unimp
  40:	0060                	addi	s0,sp,12
  42:	4000                	lw	s0,0(s0)
  44:	0000                	unimp
  46:	0000                	unimp
  48:	0028                	addi	a0,sp,8
	...
  5e:	0000                	unimp
  60:	002c                	addi	a1,sp,8
  62:	0000                	unimp
  64:	0002                	c.slli64	zero
  66:	0221                	addi	tp,tp,8 # 8 <_start-0x3ffffff8>
  68:	0000                	unimp
  6a:	0008                	.2byte	0x8
  6c:	0000                	unimp
  6e:	0000                	unimp
  70:	0088                	addi	a0,sp,64
  72:	4000                	lw	s0,0(s0)
  74:	0000                	unimp
  76:	0000                	unimp
  78:	0098                	addi	a4,sp,64
	...

Disassembly of section .debug_line:

0000000000000000 <.debug_line>:
   0:	00a1                	addi	ra,ra,8
   2:	0000                	unimp
   4:	0005                	c.nop	1
   6:	0008                	.2byte	0x8
   8:	003c                	addi	a5,sp,8
   a:	0000                	unimp
   c:	0101                	addi	sp,sp,0
   e:	fb01                	bnez	a4,ffffffffffffff1e <_stack_start+0xffffffffbfffebae>
  10:	0d0e                	slli	s10,s10,0x3
  12:	0100                	addi	s0,sp,128
  14:	0101                	addi	sp,sp,0
  16:	0001                	nop
  18:	0000                	unimp
  1a:	0001                	nop
  1c:	0100                	addi	s0,sp,128
  1e:	0101                	addi	sp,sp,0
  20:	031f 0000 0000      	.byte	0x1f, 0x03, 0x00, 0x00, 0x00, 0x00
  26:	0044                	addi	s1,sp,4
  28:	0000                	unimp
  2a:	0048                	addi	a0,sp,4
  2c:	0000                	unimp
  2e:	0102                	c.slli64	sp
  30:	021f 040f 0039      	.byte	0x1f, 0x02, 0x0f, 0x04, 0x39, 0x00
  36:	0000                	unimp
  38:	3901                	addiw	s2,s2,-32 # fffffffffffe2fe0 <_stack_start+0xffffffffbffe1c70>
  3a:	0000                	unimp
  3c:	0100                	addi	s0,sp,128
  3e:	006c                	addi	a1,sp,12
  40:	0000                	unimp
  42:	7402                	ld	s0,32(sp)
  44:	0000                	unimp
  46:	0200                	addi	s0,sp,256
  48:	1205                	addi	tp,tp,-31 # ffffffffffffffe1 <_stack_start+0xffffffffbfffec71>
  4a:	0900                	addi	s0,sp,144
  4c:	2c02                	fld	fs8,0(sp)
  4e:	0000                	unimp
  50:	0040                	addi	s0,sp,4
  52:	0000                	unimp
  54:	1900                	addi	s0,sp,176
  56:	0605                	addi	a2,a2,1
  58:	00090103          	lb	sp,0(s2)
  5c:	0100                	addi	s0,sp,128
  5e:	0905                	addi	s2,s2,1
  60:	00090103          	lb	sp,0(s2)
  64:	0100                	addi	s0,sp,128
  66:	00090103          	lb	sp,0(s2)
  6a:	0100                	addi	s0,sp,128
  6c:	1405                	addi	s0,s0,-31
  6e:	00090003          	lb	zero,0(s2)
  72:	0100                	addi	s0,sp,128
  74:	0f05                	addi	t5,t5,1
  76:	28090103          	lb	sp,640(s2)
  7a:	0100                	addi	s0,sp,128
  7c:	1305                	addi	t1,t1,-31
  7e:	0306                	slli	t1,t1,0x1
  80:	0900                	addi	s0,sp,144
  82:	0000                	unimp
  84:	0501                	addi	a0,a0,0
  86:	0316                	slli	t1,t1,0x5
  88:	0900                	addi	s0,sp,144
  8a:	0002                	c.slli64	zero
  8c:	0501                	addi	a0,a0,0
  8e:	0614                	addi	a3,sp,768
  90:	04097f03          	.4byte	0x4097f03
  94:	0100                	addi	s0,sp,128
  96:	0105                	addi	sp,sp,1
  98:	0306                	slli	t1,t1,0x1
  9a:	0905                	addi	s2,s2,1
  9c:	0004                	.2byte	0x4
  9e:	0901                	addi	s2,s2,0
  a0:	0002                	c.slli64	zero
  a2:	0100                	addi	s0,sp,128
  a4:	e101                	bnez	a0,a4 <_start-0x3fffff5c>
  a6:	0000                	unimp
  a8:	0500                	addi	s0,sp,640
  aa:	0800                	addi	s0,sp,16
  ac:	4500                	lw	s0,8(a0)
  ae:	0000                	unimp
  b0:	0100                	addi	s0,sp,128
  b2:	0101                	addi	sp,sp,0
  b4:	000d0efb          	.4byte	0xd0efb
  b8:	0101                	addi	sp,sp,0
  ba:	0101                	addi	sp,sp,0
  bc:	0000                	unimp
  be:	0100                	addi	s0,sp,128
  c0:	0000                	unimp
  c2:	0101                	addi	sp,sp,0
  c4:	1f01                	addi	t5,t5,-32
  c6:	0004                	.2byte	0x4
  c8:	0000                	unimp
  ca:	4400                	lw	s0,8(s0)
  cc:	0000                	unimp
  ce:	4800                	lw	s0,16(s0)
  d0:	0000                	unimp
  d2:	8e00                	.2byte	0x8e00
  d4:	0000                	unimp
  d6:	0200                	addi	s0,sp,256
  d8:	1f01                	addi	t5,t5,-32
  da:	0f02                	c.slli64	t5
  dc:	8705                	srai	a4,a4,0x1
  de:	0000                	unimp
  e0:	0100                	addi	s0,sp,128
  e2:	00000087          	.4byte	0x87
  e6:	6c01                	.2byte	0x6c01
  e8:	0000                	unimp
  ea:	0200                	addi	s0,sp,256
  ec:	0074                	addi	a3,sp,12
  ee:	0000                	unimp
  f0:	9202                	jalr	tp
  f2:	0000                	unimp
  f4:	0300                	addi	s0,sp,384
  f6:	0105                	addi	sp,sp,1
  f8:	0900                	addi	s0,sp,144
  fa:	6002                	.2byte	0x6002
  fc:	0000                	unimp
  fe:	0040                	addi	s0,sp,4
 100:	0000                	unimp
 102:	1600                	addi	s0,sp,800
 104:	0505                	addi	a0,a0,1
 106:	00090103          	lb	sp,0(s2)
 10a:	0100                	addi	s0,sp,128
 10c:	0905                	addi	s2,s2,1
 10e:	00090003          	lb	zero,0(s2)
 112:	0100                	addi	s0,sp,128
 114:	1405                	addi	s0,s0,-31
 116:	00090003          	lb	zero,0(s2)
 11a:	0100                	addi	s0,sp,128
 11c:	0d05                	addi	s10,s10,1
 11e:	0306                	slli	t1,t1,0x1
 120:	0900                	addi	s0,sp,144
 122:	0004                	.2byte	0x4
 124:	0501                	addi	a0,a0,0
 126:	001d                	c.nop	7
 128:	0402                	c.slli64	s0
 12a:	00030603          	lb	a2,0(t1)
 12e:	0209                	addi	tp,tp,2 # 2 <_start-0x3ffffffe>
 130:	0100                	addi	s0,sp,128
 132:	1405                	addi	s0,s0,-31
 134:	0200                	addi	s0,sp,256
 136:	0304                	addi	s1,sp,384
 138:	02090003          	lb	zero,32(s2)
 13c:	0100                	addi	s0,sp,128
 13e:	0105                	addi	sp,sp,1
 140:	0306                	slli	t1,t1,0x1
 142:	0901                	addi	s2,s2,0
 144:	0004                	.2byte	0x4
 146:	0601                	addi	a2,a2,0
 148:	02090303          	lb	t1,32(s2)
 14c:	0100                	addi	s0,sp,128
 14e:	0505                	addi	a0,a0,1
 150:	0200                	addi	s0,sp,256
 152:	0104                	addi	s1,sp,128
 154:	04090103          	lb	sp,64(s2)
 158:	0100                	addi	s0,sp,128
 15a:	0a05                	addi	s4,s4,1
 15c:	0200                	addi	s0,sp,256
 15e:	0104                	addi	s1,sp,128
 160:	00090203          	lb	tp,0(s2)
 164:	0100                	addi	s0,sp,128
 166:	0200                	addi	s0,sp,256
 168:	0104                	addi	s1,sp,128
 16a:	0a090103          	lb	sp,160(s2)
 16e:	0100                	addi	s0,sp,128
 170:	0200                	addi	s0,sp,256
 172:	0104                	addi	s1,sp,128
 174:	00090103          	lb	sp,0(s2)
 178:	0100                	addi	s0,sp,128
 17a:	0200                	addi	s0,sp,256
 17c:	0104                	addi	s1,sp,128
 17e:	0a097c03          	.4byte	0xa097c03
 182:	0100                	addi	s0,sp,128
 184:	0209                	addi	tp,tp,2 # 2 <_start-0x3ffffffe>
 186:	0000                	unimp
 188:	0101                	addi	sp,sp,0
 18a:	0125                	addi	sp,sp,9
 18c:	0000                	unimp
 18e:	0005                	c.nop	1
 190:	0008                	.2byte	0x8
 192:	003c                	addi	a5,sp,8
 194:	0000                	unimp
 196:	0101                	addi	sp,sp,0
 198:	fb01                	bnez	a4,a8 <_start-0x3fffff58>
 19a:	0d0e                	slli	s10,s10,0x3
 19c:	0100                	addi	s0,sp,128
 19e:	0101                	addi	sp,sp,0
 1a0:	0001                	nop
 1a2:	0000                	unimp
 1a4:	0001                	nop
 1a6:	0100                	addi	s0,sp,128
 1a8:	0101                	addi	sp,sp,0
 1aa:	031f 0000 0000      	.byte	0x1f, 0x03, 0x00, 0x00, 0x00, 0x00
 1b0:	0044                	addi	s1,sp,4
 1b2:	0000                	unimp
 1b4:	0048                	addi	a0,sp,4
 1b6:	0000                	unimp
 1b8:	0102                	c.slli64	sp
 1ba:	021f 040f 009d      	.byte	0x1f, 0x02, 0x0f, 0x04, 0x9d, 0x00
 1c0:	0000                	unimp
 1c2:	9d01                	subw	a0,a0,s0
 1c4:	0000                	unimp
 1c6:	0100                	addi	s0,sp,128
 1c8:	006c                	addi	a1,sp,12
 1ca:	0000                	unimp
 1cc:	7402                	ld	s0,32(sp)
 1ce:	0000                	unimp
 1d0:	0200                	addi	s0,sp,256
 1d2:	0105                	addi	sp,sp,1
 1d4:	0900                	addi	s0,sp,144
 1d6:	8802                	jr	a6
 1d8:	0000                	unimp
 1da:	0040                	addi	s0,sp,4
 1dc:	0000                	unimp
 1de:	0300                	addi	s0,sp,384
 1e0:	05050123          	sb	a6,66(a0)
 1e4:	00090103          	lb	sp,0(s2)
 1e8:	0100                	addi	s0,sp,128
 1ea:	0805                	addi	a6,a6,1
 1ec:	0306                	slli	t1,t1,0x1
 1ee:	0900                	addi	s0,sp,144
 1f0:	0000                	unimp
 1f2:	0501                	addi	a0,a0,0
 1f4:	0609                	addi	a2,a2,2
 1f6:	02090203          	lb	tp,32(s2)
 1fa:	0100                	addi	s0,sp,128
 1fc:	0505                	addi	a0,a0,1
 1fe:	00096203          	lwu	tp,0(s2)
 202:	0100                	addi	s0,sp,128
 204:	0805                	addi	a6,a6,1
 206:	0306                	slli	t1,t1,0x1
 208:	0900                	addi	s0,sp,144
 20a:	0000                	unimp
 20c:	0501                	addi	a0,a0,0
 20e:	0605                	addi	a2,a2,1
 210:	08090303          	lb	t1,128(s2)
 214:	0100                	addi	s0,sp,128
 216:	0e05                	addi	t3,t3,1
 218:	0306                	slli	t1,t1,0x1
 21a:	0900                	addi	s0,sp,144
 21c:	0000                	unimp
 21e:	0501                	addi	a0,a0,0
 220:	0605                	addi	a2,a2,1
 222:	04090103          	lb	sp,64(s2)
 226:	0100                	addi	s0,sp,128
 228:	2405                	addiw	s0,s0,1
 22a:	0306                	slli	t1,t1,0x1
 22c:	0900                	addi	s0,sp,144
 22e:	0000                	unimp
 230:	0501                	addi	a0,a0,0
 232:	030e                	slli	t1,t1,0x3
 234:	0900                	addi	s0,sp,144
 236:	0004                	.2byte	0x4
 238:	0501                	addi	a0,a0,0
 23a:	0605                	addi	a2,a2,1
 23c:	02090303          	lb	t1,32(s2)
 240:	0100                	addi	s0,sp,128
 242:	20090303          	lb	t1,512(s2)
 246:	0100                	addi	s0,sp,128
 248:	1e090103          	lb	sp,480(s2)
 24c:	0100                	addi	s0,sp,128
 24e:	0905                	addi	s2,s2,1
 250:	10091703          	lh	a4,256(s2)
 254:	0100                	addi	s0,sp,128
 256:	0505                	addi	a0,a0,1
 258:	00096e03          	lwu	t3,0(s2)
 25c:	0100                	addi	s0,sp,128
 25e:	0805                	addi	a6,a6,1
 260:	0306                	slli	t1,t1,0x1
 262:	0900                	addi	s0,sp,144
 264:	0000                	unimp
 266:	0501                	addi	a0,a0,0
 268:	0605                	addi	a2,a2,1
 26a:	08090303          	lb	t1,128(s2)
 26e:	0100                	addi	s0,sp,128
 270:	00090103          	lb	sp,0(s2)
 274:	0100                	addi	s0,sp,128
 276:	00090203          	lb	tp,0(s2)
 27a:	0100                	addi	s0,sp,128
 27c:	0e05                	addi	t3,t3,1
 27e:	0306                	slli	t1,t1,0x1
 280:	097d                	addi	s2,s2,31
 282:	0000                	unimp
 284:	0501                	addi	a0,a0,0
 286:	0305                	addi	t1,t1,1
 288:	00040903          	lb	s2,0(s0)
 28c:	0501                	addi	a0,a0,0
 28e:	0324                	addi	s1,sp,392
 290:	097e                	slli	s2,s2,0x1f
 292:	0010                	.2byte	0x10
 294:	0501                	addi	a0,a0,0
 296:	030e                	slli	t1,t1,0x3
 298:	0900                	addi	s0,sp,144
 29a:	0004                	.2byte	0x4
 29c:	0501                	addi	a0,a0,0
 29e:	0305                	addi	t1,t1,1
 2a0:	0902                	c.slli64	s2
 2a2:	0002                	c.slli64	zero
 2a4:	0501                	addi	a0,a0,0
 2a6:	0301                	addi	t1,t1,0
 2a8:	090e                	slli	s2,s2,0x3
 2aa:	0012                	c.slli	zero,0x4
 2ac:	0901                	addi	s2,s2,0
 2ae:	0002                	c.slli64	zero
 2b0:	0100                	addi	s0,sp,128
 2b2:	01              	Address 0x00000000000002b2 is out of bounds.


Disassembly of section .debug_str:

0000000000000000 <.debug_str>:
   0:	5f5f 6975 746e      	.byte	0x5f, 0x5f, 0x75, 0x69, 0x6e, 0x74
   6:	745f3233          	.4byte	0x745f3233
   a:	6c00                	ld	s0,24(s0)
   c:	20676e6f          	jal	t3,76212 <_start-0x3ff89dee>
  10:	6e75                	lui	t3,0x1d
  12:	6e676973          	csrrsi	s2,0x6e6,14
  16:	6465                	lui	s0,0x19
  18:	6920                	ld	s0,80(a0)
  1a:	746e                	ld	s0,248(sp)
  1c:	5f00                	lw	s0,56(a4)
  1e:	7362                	ld	t1,56(sp)
  20:	74735f73          	csrrwi	t5,0x747,6
  24:	7261                	lui	tp,0xffff8
  26:	0074                	addi	a3,sp,12
  28:	20554e47          	fmsub.s	ft8,fa0,ft5,ft4,rmm
  2c:	20373143          	fmadd.s	ft2,fa4,ft3,ft4,rup
  30:	3131                	addiw	sp,sp,-20
  32:	342e                	fld	fs0,232(sp)
  34:	302e                	fld	ft0,232(sp)
  36:	2d20                	fld	fs0,88(a0)
  38:	616d                	addi	sp,sp,240
  3a:	6962                	ld	s2,24(sp)
  3c:	6c3d                	lui	s8,0xf
  3e:	3670                	fld	fa2,232(a2)
  40:	6434                	ld	a3,72(s0)
  42:	2d20                	fld	fs0,88(a0)
  44:	696d                	lui	s2,0x1b
  46:	732d6173          	csrrsi	sp,0x732,26
  4a:	6570                	ld	a2,200(a0)
  4c:	2e323d63          	.4byte	0x2e323d63
  50:	2032                	fld	ft0,264(sp)
  52:	6d2d                	lui	s10,0xb
  54:	7261                	lui	tp,0xffff8
  56:	723d6863          	bltu	s10,gp,786 <_start-0x3ffff87a>
  5a:	3676                	fld	fa2,376(sp)
  5c:	6934                	ld	a3,80(a0)
  5e:	616d                	addi	sp,sp,240
  60:	6466                	ld	s0,88(sp)
  62:	672d2063          	.4byte	0x672d2063
  66:	2d20                	fld	fs0,88(a0)
  68:	2d20314f          	.4byte	0x2d20314f
  6c:	7366                	ld	t1,120(sp)
  6e:	6174                	ld	a3,192(a0)
  70:	702d6b63          	bltu	s10,sp,786 <_start-0x3ffff87a>
  74:	6f72                	ld	t5,280(sp)
  76:	6574                	ld	a3,200(a0)
  78:	726f7463          	bgeu	t5,t1,7a0 <_start-0x3ffff860>
  7c:	732d                	lui	t1,0xfffeb
  7e:	7274                	ld	a3,224(a2)
  80:	00676e6f          	jal	t3,76086 <_start-0x3ff89f7a>
  84:	6e75                	lui	t3,0x1d
  86:	6e676973          	csrrsi	s2,0x6e6,14
  8a:	6465                	lui	s0,0x19
  8c:	6320                	ld	s0,64(a4)
  8e:	6168                	ld	a0,192(a0)
  90:	0072                	c.slli	zero,0x1c
  92:	6f6c                	ld	a1,216(a4)
  94:	676e                	ld	a4,216(sp)
  96:	6920                	ld	s0,80(a0)
  98:	746e                	ld	s0,248(sp)
  9a:	7300                	ld	s0,32(a4)
  9c:	6f68                	ld	a0,216(a4)
  9e:	7472                	ld	s0,312(sp)
  a0:	7520                	ld	s0,104(a0)
  a2:	736e                	ld	t1,248(sp)
  a4:	6769                	lui	a4,0x1a
  a6:	656e                	ld	a0,216(sp)
  a8:	2064                	fld	fs1,192(s0)
  aa:	6e69                	lui	t3,0x1a
  ac:	0074                	addi	a3,sp,12
  ae:	726f6873          	csrrsi	a6,0x726,30
  b2:	2074                	fld	fa3,192(s0)
  b4:	6e69                	lui	t3,0x1a
  b6:	0074                	addi	a3,sp,12
  b8:	625f 7373 655f      	.byte	0x5f, 0x62, 0x73, 0x73, 0x5f, 0x65
  be:	646e                	ld	s0,216(sp)
  c0:	6700                	ld	s0,8(a4)
  c2:	6970                	ld	a2,208(a0)
  c4:	72775f6f          	jal	t5,75fea <_start-0x3ff8a016>
  c8:	7469                	lui	s0,0xffffa
  ca:	0065                	c.nop	25
  cc:	6974                	ld	a3,208(a0)
  ce:	656d                	lui	a0,0x1b
  d0:	6d00                	ld	s0,24(a0)
  d2:	6961                	lui	s2,0x18
  d4:	006e                	c.slli	zero,0x1b
  d6:	425f 6f6f 006c      	.byte	0x5f, 0x42, 0x6f, 0x6f, 0x6c, 0x00
  dc:	6564                	ld	s1,200(a0)
  de:	616c                	ld	a1,192(a0)
  e0:	0079                	c.nop	30
  e2:	5f746573          	csrrsi	a0,0x5f7,8
  e6:	6f697067          	.4byte	0x6f697067
  ea:	6f00                	ld	s0,24(a4)
  ec:	6666                	ld	a2,88(sp)
  ee:	00746573          	csrrsi	a0,0x7,8
  f2:	66696873          	csrrsi	a6,0x666,18
  f6:	0074                	addi	a3,sp,12
  f8:	61656c63          	bltu	a0,s6,710 <_start-0x3ffff8f0>
  fc:	5f72                	lw	t5,60(sp)
  fe:	6f697067          	.4byte	0x6f697067
 102:	7600                	ld	s0,40(a2)
 104:	6c61                	lui	s8,0x18
 106:	6575                	lui	a0,0x1d
	...

Disassembly of section .debug_line_str:

0000000000000000 <.debug_line_str>:
   0:	64656d2f          	.4byte	0x64656d2f
   4:	6169                	addi	sp,sp,208
   6:	706d652f          	.4byte	0x706d652f
   a:	6f6c                	ld	a1,216(a4)
   c:	6579                	lui	a0,0x1e
   e:	2f65                	addiw	t5,t5,25
  10:	6144                	ld	s1,128(a0)
  12:	6174                	ld	a3,192(a0)
  14:	7369522f          	.4byte	0x7369522f
  18:	2f762d63          	.4byte	0x2f762d63
  1c:	655a                	ld	a0,400(sp)
  1e:	6870                	ld	a2,208(s0)
  20:	7279                	lui	tp,0xffffe
  22:	2d796d2f          	.4byte	0x2d796d2f
  26:	6b726f77          	.4byte	0x6b726f77
  2a:	63617073          	csrci	0x636,2
  2e:	2f65                	addiw	t5,t5,25
  30:	6574                	ld	a3,200(a0)
  32:	73007473          	csrrci	s0,0x730,0
  36:	6372                	ld	t1,280(sp)
  38:	696e692f          	.4byte	0x696e692f
  3c:	5f74                	lw	a3,124(a4)
  3e:	656d                	lui	a0,0x1b
  40:	2e6d                	addiw	t3,t3,27 # 1a01b <_start-0x3ffe5fe5>
  42:	72730063          	beq	t1,t2,762 <_start-0x3ffff89e>
  46:	752f0063          	beq	t5,s2,786 <_start-0x3ffff87a>
  4a:	722f7273          	csrrci	tp,0x722,30
  4e:	7369                	lui	t1,0xffffa
  50:	34367663          	bgeu	a2,gp,39c <_start-0x3ffffc64>
  54:	6c2d                	lui	s8,0xb
  56:	6e69                	lui	t3,0x1a
  58:	7875                	lui	a6,0xffffd
  5a:	672d                	lui	a4,0xb
  5c:	756e                	ld	a0,248(sp)
  5e:	636e692f          	.4byte	0x636e692f
  62:	756c                	ld	a1,232(a0)
  64:	6564                	ld	s1,200(a0)
  66:	7469622f          	.4byte	0x7469622f
  6a:	79740073          	.4byte	0x79740073
  6e:	6570                	ld	a2,200(a0)
  70:	00682e73          	csrrs	t3,0x6,a6
  74:	69647473          	csrrci	s0,0x696,8
  78:	746e                	ld	s0,248(sp)
  7a:	752d                	lui	a0,0xfffeb
  7c:	6e69                	lui	t3,0x1a
  7e:	6e74                	ld	a3,216(a2)
  80:	682e                	ld	a6,200(sp)
  82:	7300                	ld	s0,32(a4)
  84:	6372                	ld	t1,280(sp)
  86:	69616d2f          	.4byte	0x69616d2f
  8a:	2e6e                	fld	ft8,216(sp)
  8c:	6e690063          	beq	s2,t1,76c <_start-0x3ffff894>
  90:	70670063          	beq	a4,t1,790 <_start-0x3ffff870>
  94:	6f69                	lui	t5,0x1a
  96:	682e                	ld	a6,200(sp)
  98:	7300                	ld	s0,32(a4)
  9a:	6372                	ld	t1,280(sp)
  9c:	6970672f          	.4byte	0x6970672f
  a0:	00632e6f          	jal	t3,320a6 <_start-0x3ffcdf5a>

Disassembly of section .debug_frame:

0000000000000000 <.debug_frame>:
   0:	000c                	.2byte	0xc
   2:	0000                	unimp
   4:	ffff                	.2byte	0xffff
   6:	ffff                	.2byte	0xffff
   8:	7c010003          	lb	zero,1984(sp)
   c:	0d01                	addi	s10,s10,0 # b000 <_start-0x3fff5000>
   e:	0002                	c.slli64	zero
  10:	0014                	.2byte	0x14
  12:	0000                	unimp
  14:	0000                	unimp
  16:	0000                	unimp
  18:	002c                	addi	a1,sp,8
  1a:	4000                	lw	s0,0(s0)
  1c:	0000                	unimp
  1e:	0000                	unimp
  20:	0034                	addi	a3,sp,8
  22:	0000                	unimp
  24:	0000                	unimp
  26:	0000                	unimp
  28:	000c                	.2byte	0xc
  2a:	0000                	unimp
  2c:	ffff                	.2byte	0xffff
  2e:	ffff                	.2byte	0xffff
  30:	7c010003          	lb	zero,1984(sp)
  34:	0d01                	addi	s10,s10,0
  36:	0002                	c.slli64	zero
  38:	0014                	.2byte	0x14
  3a:	0000                	unimp
  3c:	0028                	addi	a0,sp,8
  3e:	0000                	unimp
  40:	0060                	addi	s0,sp,12
  42:	4000                	lw	s0,0(s0)
  44:	0000                	unimp
  46:	0000                	unimp
  48:	000e                	c.slli	zero,0x3
  4a:	0000                	unimp
  4c:	0000                	unimp
  4e:	0000                	unimp
  50:	001c                	.2byte	0x1c
  52:	0000                	unimp
  54:	0028                	addi	a0,sp,8
  56:	0000                	unimp
  58:	006e                	c.slli	zero,0x1b
  5a:	4000                	lw	s0,0(s0)
  5c:	0000                	unimp
  5e:	0000                	unimp
  60:	001a                	c.slli	zero,0x6
  62:	0000                	unimp
  64:	0000                	unimp
  66:	0000                	unimp
  68:	0e42                	slli	t3,t3,0x10
  6a:	4210                	lw	a2,0(a2)
  6c:	0281                	addi	t0,t0,0
  6e:	0000                	unimp
  70:	000c                	.2byte	0xc
  72:	0000                	unimp
  74:	ffff                	.2byte	0xffff
  76:	ffff                	.2byte	0xffff
  78:	7c010003          	lb	zero,1984(sp)
  7c:	0d01                	addi	s10,s10,0
  7e:	0002                	c.slli64	zero
  80:	0014                	.2byte	0x14
  82:	0000                	unimp
  84:	0070                	addi	a2,sp,12
  86:	0000                	unimp
  88:	0088                	addi	a0,sp,64
  8a:	4000                	lw	s0,0(s0)
  8c:	0000                	unimp
  8e:	0000                	unimp
  90:	0098                	addi	a4,sp,64
  92:	0000                	unimp
  94:	0000                	unimp
	...
